target datalayout = "e-m:e-p270:32:32-p271:32:32-p272:64:64-i64:64-i128:128-f80:128-n8:16:32:64-S128"
target triple = "x86_64-pc-linux-gnu"

%"class.boost::nowide::detail::console_output_buffer_base" = type { %"class.std::basic_streambuf", [1024 x i8], [1024 x i32] }
%"class.std::basic_streambuf" = type { ptr, ptr, ptr, ptr, ptr, ptr, ptr, %"class.std::locale" }
%"class.std::locale" = type { ptr }

; Function Attrs: mustprogress nounwind uwtable
define linkonce_odr hidden noundef ptr @_ZN5boost6nowide3utf10utf_traitsIwLi4EE6encodeIPwEET_jS6_(i32 noundef %0, ptr noundef %1) #1 comdat align 2 {
  %3 = alloca i32, align 4
  %4 = alloca ptr, align 8
  store i32 %0, ptr %3, align 4, !tbaa !9
  store ptr %1, ptr %4, align 8, !tbaa !3
  %5 = load i32, ptr %3, align 4, !tbaa !9
  %6 = load ptr, ptr %4, align 8, !tbaa !3
  %7 = getelementptr inbounds nuw i32, ptr %6, i32 1
  store ptr %7, ptr %4, align 8, !tbaa !3
  store i32 %5, ptr %6, align 4, !tbaa !21
  %8 = load ptr, ptr %4, align 8, !tbaa !3
  ret ptr %8
}

; Function Attrs: mustprogress uwtable
define noundef i32 @_ZN5boost6nowide6detail26console_output_buffer_base5writeEPKci(ptr noundef nonnull align 8 dereferenceable(5184) %0, ptr noundef %1, i32 noundef %2) #0 align 2 {
  %4 = alloca i32, align 4
  %5 = alloca ptr, align 8
  %6 = alloca ptr, align 8
  %7 = alloca i32, align 4
  %8 = alloca ptr, align 8
  %9 = alloca ptr, align 8
  %10 = alloca i32, align 4
  %11 = alloca ptr, align 8
  %12 = alloca i32, align 4
  %13 = alloca i64, align 8
  %14 = alloca i64, align 8
  store ptr %0, ptr %5, align 8, !tbaa !3
  store ptr %1, ptr %6, align 8, !tbaa !3
  store i32 %2, ptr %7, align 4, !tbaa !9
  %15 = load ptr, ptr %5, align 8
  call void @llvm.lifetime.start.p0(i64 8, ptr %8) #15
  %16 = load ptr, ptr %6, align 8, !tbaa !3
  store ptr %16, ptr %8, align 8, !tbaa !3
  call void @llvm.lifetime.start.p0(i64 8, ptr %9) #15
  %17 = load ptr, ptr %6, align 8, !tbaa !3
  %18 = load i32, ptr %7, align 4, !tbaa !9
  %19 = sext i32 %18 to i64
  %20 = getelementptr inbounds i8, ptr %17, i64 %19
  store ptr %20, ptr %9, align 8, !tbaa !3
  %21 = load i32, ptr %7, align 4, !tbaa !9
  %22 = icmp sgt i32 %21, 1024
  br i1 %22, label %23, label %24

23:                                               ; preds = %3
  store i32 -1, ptr %4, align 4
  store i32 1, ptr %10, align 4
  br label %63

24:                                               ; preds = %3
  call void @llvm.lifetime.start.p0(i64 8, ptr %11) #15
  %25 = getelementptr inbounds nuw %"class.boost::nowide::detail::console_output_buffer_base", ptr %15, i32 0, i32 2
  %26 = getelementptr inbounds [1024 x i32], ptr %25, i64 0, i64 0
  store ptr %26, ptr %11, align 8, !tbaa !3
  call void @llvm.lifetime.start.p0(i64 4, ptr %12) #15
  call void @llvm.lifetime.start.p0(i64 8, ptr %13) #15
  store i64 0, ptr %13, align 8, !tbaa !15
  br label %27

27:                                               ; preds = %35, %24
  %28 = load ptr, ptr %9, align 8, !tbaa !3
  %29 = call noundef i32 @_ZN5boost6nowide3utf10utf_traitsIcLi1EE6decodeIPKcEEjRT_S7_(ptr noundef nonnull align 8 dereferenceable(8) %6, ptr noundef %28)
  store i32 %29, ptr %12, align 4, !tbaa !9
  %30 = icmp ne i32 %29, -2
  br i1 %30, label %31, label %44

31:                                               ; preds = %27
  %32 = load i32, ptr %12, align 4, !tbaa !9
  %33 = icmp eq i32 %32, -1
  br i1 %33, label %34, label %35

34:                                               ; preds = %31
  store i32 65533, ptr %12, align 4, !tbaa !9
  br label %35

35:                                               ; preds = %34, %31
  %36 = load i32, ptr %12, align 4, !tbaa !9
  %37 = load ptr, ptr %11, align 8, !tbaa !3
  %38 = call noundef ptr @_ZN5boost6nowide3utf10utf_traitsIwLi4EE6encodeIPwEET_jS6_(i32 noundef %36, ptr noundef %37)
  store ptr %38, ptr %11, align 8, !tbaa !3
  %39 = load ptr, ptr %6, align 8, !tbaa !3
  %40 = load ptr, ptr %8, align 8, !tbaa !3
  %41 = ptrtoint ptr %39 to i64
  %42 = ptrtoint ptr %40 to i64
  %43 = sub i64 %41, %42
  store i64 %43, ptr %13, align 8, !tbaa !15
  br label %27, !llvm.loop !17

44:                                               ; preds = %27
  call void @llvm.lifetime.start.p0(i64 8, ptr %14) #15
  store i64 0, ptr %14, align 8, !tbaa !15
  %45 = getelementptr inbounds nuw %"class.boost::nowide::detail::console_output_buffer_base", ptr %15, i32 0, i32 2
  %46 = getelementptr inbounds [1024 x i32], ptr %45, i64 0, i64 0
  %47 = load ptr, ptr %11, align 8, !tbaa !3
  %48 = getelementptr inbounds nuw %"class.boost::nowide::detail::console_output_buffer_base", ptr %15, i32 0, i32 2
  %49 = getelementptr inbounds [1024 x i32], ptr %48, i64 0, i64 0
  %50 = ptrtoint ptr %47 to i64
  %51 = ptrtoint ptr %49 to i64
  %52 = sub i64 %50, %51
  %53 = sdiv exact i64 %52, 4
  %54 = load ptr, ptr %15, align 8, !tbaa !7
  %55 = getelementptr inbounds ptr, ptr %54, i64 14
  %56 = load ptr, ptr %55, align 8
  %57 = call noundef zeroext i1 %56(ptr noundef nonnull align 8 dereferenceable(5184) %15, ptr noundef %46, i64 noundef %53, ptr noundef nonnull align 8 dereferenceable(8) %14)
  br i1 %57, label %59, label %58

58:                                               ; preds = %44
  store i32 -1, ptr %4, align 4
  store i32 1, ptr %10, align 4
  br label %62

59:                                               ; preds = %44
  %60 = load i64, ptr %13, align 8, !tbaa !15
  %61 = trunc i64 %60 to i32
  store i32 %61, ptr %4, align 4
  store i32 1, ptr %10, align 4
  br label %62

62:                                               ; preds = %59, %58
  call void @llvm.lifetime.end.p0(i64 8, ptr %14) #15
  call void @llvm.lifetime.end.p0(i64 8, ptr %13) #15
  call void @llvm.lifetime.end.p0(i64 4, ptr %12) #15
  call void @llvm.lifetime.end.p0(i64 8, ptr %11) #15
  br label %63

63:                                               ; preds = %62, %23
  call void @llvm.lifetime.end.p0(i64 8, ptr %9) #15
  call void @llvm.lifetime.end.p0(i64 8, ptr %8) #15
  %64 = load i32, ptr %4, align 4
  ret i32 %64
}