; Function Attrs: mustprogress uwtable
define noundef i32 @_ZN5boost6nowide6detail26console_output_buffer_base5writeEPKci(ptr noundef nonnull align 8 dereferenceable(5184) %0, ptr noundef %1, i32 noundef %2) local_unnamed_addr #0 align 2 {
  %4 = alloca ptr, align 8
  %5 = alloca i64, align 8
  store ptr %1, ptr %4, align 8, !tbaa !12
  %6 = sext i32 %2 to i64
  %7 = getelementptr inbounds i8, ptr %1, i64 %6
  %8 = icmp sgt i32 %2, 1024
  br i1 %8, label %30, label %9

9:                                                ; preds = %3
  %10 = getelementptr inbounds nuw i8, ptr %0, i64 1088
  %11 = call noundef i32 @_ZN5boost6nowide3utf10utf_traitsIcLi1EE6decodeIPKcEEjRT_S7_(ptr noundef nonnull align 8 dereferenceable(8) %4, ptr noundef %7)
  %.not13 = icmp eq i32 %11, -2
  br i1 %.not13, label %21, label %.lr.ph

.lr.ph:                                           ; preds = %9, %.lr.ph
  %12 = phi i32 [ %16, %.lr.ph ], [ %11, %9 ]
  %.01014 = phi ptr [ %14, %.lr.ph ], [ %10, %9 ]
  %13 = icmp eq i32 %12, -1
  %spec.store.select = select i1 %13, i32 65533, i32 %12
  %14 = getelementptr inbounds nuw i8, ptr %.01014, i64 4
  store i32 %spec.store.select, ptr %.01014, align 4, !tbaa !13
  %15 = load ptr, ptr %4, align 8, !tbaa !12
  %16 = call noundef i32 @_ZN5boost6nowide3utf10utf_traitsIcLi1EE6decodeIPKcEEjRT_S7_(ptr noundef nonnull align 8 dereferenceable(8) %4, ptr noundef %7)
  %.not = icmp eq i32 %16, -2
  br i1 %.not, label %._crit_edge, label %.lr.ph, !llvm.loop !15

._crit_edge:                                      ; preds = %.lr.ph
  %17 = ptrtoint ptr %15 to i64
  %18 = ptrtoint ptr %1 to i64
  %19 = sub i64 %17, %18
  %20 = trunc i64 %19 to i32
  br label %21

21:                                               ; preds = %._crit_edge, %9
  %.010.lcssa = phi ptr [ %14, %._crit_edge ], [ %10, %9 ]
  %.0.lcssa = phi i32 [ %20, %._crit_edge ], [ 0, %9 ]
  call void @llvm.lifetime.start.p0(i64 8, ptr nonnull %5) #14
  store i64 0, ptr %5, align 8, !tbaa !17
  %22 = ptrtoint ptr %.010.lcssa to i64
  %23 = ptrtoint ptr %10 to i64
  %24 = sub i64 %22, %23
  %25 = ashr exact i64 %24, 2
  %26 = load ptr, ptr %0, align 8, !tbaa !3
  %27 = getelementptr inbounds i8, ptr %26, i64 112
  %28 = load ptr, ptr %27, align 8
  %29 = call noundef zeroext i1 %28(ptr noundef nonnull align 8 dereferenceable(5184) %0, ptr noundef nonnull %10, i64 noundef %25, ptr noundef nonnull align 8 dereferenceable(8) %5)
  %.1 = select i1 %29, i32 %.0.lcssa, i32 -1
  call void @llvm.lifetime.end.p0(i64 8, ptr nonnull %5) #14
  br label %30

30:                                               ; preds = %3, %21
  %.011 = phi i32 [ %.1, %21 ], [ -1, %3 ]
  ret i32 %.011
}